; Function Attrs: mustprogress uwtable
define internal fastcc void @_ZN6icu_7512_GLOBAL__N_118getMaximalLsrOrUndERKNS_13LikelySubtagsERKNS_6LocaleER10UErrorCode(ptr noalias align 8 %agg.result, ptr noundef nonnull align 8 dereferenceable(352) %likelySubtags, ptr noundef nonnull align 8 dereferenceable(217) %locale, ptr noundef nonnull align 4 dereferenceable(4) %errorCode) unnamed_addr #2 {
entry:
  %0 = load i32, ptr %errorCode, align 4
  %cmp.i = icmp slt i32 %0, 1
  %fIsBogus.i = getelementptr inbounds i8, ptr %locale, i64 216
  %1 = load i8, ptr %fIsBogus.i, align 8
  %tobool2.not = icmp eq i8 %1, 0
  %or.cond = select i1 %cmp.i, i1 %tobool2.not, i1 false
  br i1 %or.cond, label %lor.lhs.false3, label %if.then

lor.lhs.false3:                                   ; preds = %entry
  %fullName.i = getelementptr inbounds i8, ptr %locale, i64 40
  %2 = load ptr, ptr %fullName.i, align 8
  %3 = load i8, ptr %2, align 1
  %cmp = icmp eq i8 %3, 0
  br i1 %cmp, label %if.then, label %if.else

if.then:                                          ; preds = %lor.lhs.false3, %entry
  store ptr @.str, ptr %agg.result, align 8
  %script.i = getelementptr inbounds i8, ptr %agg.result, i64 8
  store ptr @.str.1, ptr %script.i, align 8
  %region.i = getelementptr inbounds i8, ptr %agg.result, i64 16
  store ptr @.str.1, ptr %region.i, align 8
  %owned.i = getelementptr inbounds i8, ptr %agg.result, i64 24
  store ptr null, ptr %owned.i, align 8
  %regionIndex.i = getelementptr inbounds i8, ptr %agg.result, i64 32
  %call.i = tail call noundef i32 @_ZN6icu_753LSR14indexForRegionEPKc(ptr noundef nonnull @.str.1)
  store i32 %call.i, ptr %regionIndex.i, align 8
  %flags.i = getelementptr inbounds i8, ptr %agg.result, i64 36
  store i32 7, ptr %flags.i, align 4
  %hashCode.i = getelementptr inbounds i8, ptr %agg.result, i64 40
  store i32 0, ptr %hashCode.i, align 8
  br label %return

if.else:                                          ; preds = %lor.lhs.false3
  tail call void @_ZNK6icu_7513LikelySubtags20makeMaximizedLsrFromERKNS_6LocaleEbR10UErrorCode(ptr sret(%"struct.icu_75::LSR") align 8 %agg.result, ptr noundef nonnull align 8 dereferenceable(352) %likelySubtags, ptr noundef nonnull align 8 dereferenceable(217) %locale, i1 noundef zeroext false, ptr noundef nonnull align 4 dereferenceable(4) %errorCode)
  br label %return

return:                                           ; preds = %if.else, %if.then
  ret void
}